target datalayout = "e-m:e-p270:32:32-p271:32:32-p272:64:64-i64:64-i128:128-f80:128-n8:16:32:64-S128"
target triple = "x86_64-pc-linux-gnu"

%struct.rlimit = type { i64, i64 }

@.str = private unnamed_addr constant [32 x i8] c"getrlimit(RLIMIT_NOFILE) failed\00", align 1

; Function Attrs: mustprogress uwtable
define noundef i64 @_ZN4base9GetMaxFdsEv() #2 {
  %1 = alloca i64, align 8
  %2 = alloca %struct.rlimit, align 8
  call void @llvm.lifetime.start.p0(i64 8, ptr %1) #8
  call void @llvm.lifetime.start.p0(i64 16, ptr %2) #8
  %3 = call i32 @getrlimit(i32 noundef 7, ptr noundef %2) #8
  %4 = icmp ne i32 %3, 0
  br i1 %4, label %5, label %6

5:                                                ; preds = %0
  store i64 8192, ptr %1, align 8, !tbaa !11
  call void @_ZN7logging6RawLogEiPKc(i32 noundef 2, ptr noundef @.str)
  br label %9

6:                                                ; preds = %0
  %7 = getelementptr inbounds nuw %struct.rlimit, ptr %2, i32 0, i32 0
  %8 = load i64, ptr %7, align 8, !tbaa !15
  store i64 %8, ptr %1, align 8, !tbaa !11
  br label %9

9:                                                ; preds = %6, %5
  %10 = load i64, ptr %1, align 8, !tbaa !11
  %11 = icmp ugt i64 %10, 2147483647
  br i1 %11, label %12, label %13

12:                                               ; preds = %9
  store i64 2147483647, ptr %1, align 8, !tbaa !11
  br label %13

13:                                               ; preds = %12, %9
  %14 = load i64, ptr %1, align 8, !tbaa !11
  call void @llvm.lifetime.end.p0(i64 16, ptr %2) #8
  call void @llvm.lifetime.end.p0(i64 8, ptr %1) #8
  ret i64 %14
}